; Function Attrs: nounwind uwtable
define ptr @l_Lean_Language_SnapshotTree_foldSnaps___rarg(ptr noundef %0, ptr noundef %1, ptr noundef %2) #1 {
  %4 = getelementptr inbounds nuw i8, ptr %0, i64 16
  %5 = load ptr, ptr %4, align 8, !tbaa !9
  %6 = ptrtoint ptr %5 to i64
  %7 = and i64 %6, 1
  %.not.i = icmp eq i64 %7, 0
  br i1 %.not.i, label %8, label %lean_inc.exit.i

8:                                                ; preds = %3
  %.val.i.i = load i32, ptr %5, align 4, !tbaa !4
  %9 = icmp sgt i32 %.val.i.i, 0
  br i1 %9, label %10, label %12, !prof !11

10:                                               ; preds = %8
  %11 = add nuw i32 %.val.i.i, 1
  store i32 %11, ptr %5, align 4, !tbaa !4
  br label %lean_inc.exit.i

12:                                               ; preds = %8
  %.not.i8.i = icmp eq i32 %.val.i.i, 0
  br i1 %.not.i8.i, label %lean_inc.exit.i, label %13

13:                                               ; preds = %12
  tail call void @lean_inc_ref_cold(ptr noundef nonnull %5) #6
  br label %lean_inc.exit.i

lean_inc.exit.i:                                  ; preds = %13, %12, %10, %3
  %14 = ptrtoint ptr %0 to i64
  %15 = and i64 %14, 1
  %.not9.i = icmp eq i64 %15, 0
  br i1 %.not9.i, label %16, label %l_Lean_Language_SnapshotTree_foldSnaps_traverseTree___rarg.exit

16:                                               ; preds = %lean_inc.exit.i
  %17 = load i32, ptr %0, align 4, !tbaa !4
  %18 = icmp sgt i32 %17, 1
  br i1 %18, label %19, label %21, !prof !11

19:                                               ; preds = %16
  %20 = add nsw i32 %17, -1
  store i32 %20, ptr %0, align 4, !tbaa !4
  br label %l_Lean_Language_SnapshotTree_foldSnaps_traverseTree___rarg.exit

21:                                               ; preds = %16
  %.not.i.i = icmp eq i32 %17, 0
  br i1 %.not.i.i, label %l_Lean_Language_SnapshotTree_foldSnaps_traverseTree___rarg.exit, label %22

22:                                               ; preds = %21
  tail call void @lean_dec_ref_cold(ptr noundef nonnull %0) #6
  br label %l_Lean_Language_SnapshotTree_foldSnaps_traverseTree___rarg.exit

l_Lean_Language_SnapshotTree_foldSnaps_traverseTree___rarg.exit: ; preds = %lean_inc.exit.i, %19, %21, %22
  %23 = tail call ptr @lean_array_to_list(ptr noundef %5) #6
  %24 = tail call ptr @l_Lean_Language_SnapshotTree_foldSnaps_traverseChildren___rarg(ptr noundef %2, ptr noundef %1, ptr noundef %23)
  %25 = load ptr, ptr @l_Lean_Language_SnapshotTree_foldSnaps___rarg___closed__1, align 8, !tbaa !9
  %26 = load ptr, ptr @l_Task_Priority_default, align 8, !tbaa !9
  %27 = ptrtoint ptr %26 to i64
  %28 = lshr i64 %27, 1
  %29 = trunc i64 %28 to i32
  %30 = tail call ptr @lean_task_map_core(ptr noundef %25, ptr noundef %24, i32 noundef %29, i1 noundef zeroext true, i1 noundef zeroext false) #6
  ret ptr %30
}